target datalayout = "e-m:e-p270:32:32-p271:32:32-p272:64:64-i64:64-i128:128-f80:128-n8:16:32:64-S128"
target triple = "x86_64-pc-linux-gnu"

%struct.dlist_head = type { %struct.dlist_node }
%struct.dlist_node = type { ptr, ptr }
%struct.PMChild = type { i32, i32, i32, ptr, i8, %struct.dlist_node }
%struct.dlist_iter = type { ptr, ptr }

@ActiveChildList = external global %struct.dlist_head, align 8

; Function Attrs: nounwind uwtable
define dso_local zeroext i1 @PostmasterMarkPIDForWorkerNotify(i32 noundef %0) #2 {
  %2 = alloca i1, align 1
  %3 = alloca i32, align 4
  %4 = alloca %struct.dlist_iter, align 8
  %5 = alloca ptr, align 8
  %6 = alloca i32, align 4
  %7 = alloca i32, align 4
  %8 = alloca i32, align 4
  %9 = alloca i32, align 4
  %10 = alloca i32, align 4
  store i32 %0, ptr %3, align 4
  call void @llvm.lifetime.start.p0(i64 16, ptr %4) #15
  call void @llvm.lifetime.start.p0(i64 8, ptr %5) #15
  br label %11

11:                                               ; preds = %1
  br label %12

12:                                               ; preds = %11
  br label %13

13:                                               ; preds = %12
  store i32 1, ptr %6, align 4
  br label %14

14:                                               ; preds = %13
  br label %15

15:                                               ; preds = %14
  br label %16

16:                                               ; preds = %15
  store i32 1, ptr %7, align 4
  %17 = getelementptr inbounds nuw %struct.dlist_iter, ptr %4, i32 0, i32 1
  store ptr @ActiveChildList, ptr %17, align 8
  %18 = getelementptr inbounds nuw %struct.dlist_iter, ptr %4, i32 0, i32 1
  %19 = load ptr, ptr %18, align 8
  %20 = getelementptr inbounds nuw %struct.dlist_node, ptr %19, i32 0, i32 1
  %21 = load ptr, ptr %20, align 8
  %22 = icmp ne ptr %21, null
  br i1 %22, label %23, label %28

23:                                               ; preds = %16
  %24 = getelementptr inbounds nuw %struct.dlist_iter, ptr %4, i32 0, i32 1
  %25 = load ptr, ptr %24, align 8
  %26 = getelementptr inbounds nuw %struct.dlist_node, ptr %25, i32 0, i32 1
  %27 = load ptr, ptr %26, align 8
  br label %31

28:                                               ; preds = %16
  %29 = getelementptr inbounds nuw %struct.dlist_iter, ptr %4, i32 0, i32 1
  %30 = load ptr, ptr %29, align 8
  br label %31

31:                                               ; preds = %28, %23
  %32 = phi ptr [ %27, %23 ], [ %30, %28 ]
  %33 = getelementptr inbounds nuw %struct.dlist_iter, ptr %4, i32 0, i32 0
  store ptr %32, ptr %33, align 8
  br label %34

34:                                               ; preds = %59, %31
  %35 = getelementptr inbounds nuw %struct.dlist_iter, ptr %4, i32 0, i32 0
  %36 = load ptr, ptr %35, align 8
  %37 = getelementptr inbounds nuw %struct.dlist_iter, ptr %4, i32 0, i32 1
  %38 = load ptr, ptr %37, align 8
  %39 = icmp ne ptr %36, %38
  br i1 %39, label %40, label %65

40:                                               ; preds = %34
  br label %41

41:                                               ; preds = %40
  br label %42

42:                                               ; preds = %41
  br label %43

43:                                               ; preds = %42
  store i32 1, ptr %8, align 4
  br label %44

44:                                               ; preds = %43
  br label %45

45:                                               ; preds = %44
  br label %46

46:                                               ; preds = %45
  store i32 1, ptr %9, align 4
  %47 = getelementptr inbounds nuw %struct.dlist_iter, ptr %4, i32 0, i32 0
  %48 = load ptr, ptr %47, align 8
  %49 = getelementptr inbounds i8, ptr %48, i64 -32
  store ptr %49, ptr %5, align 8
  %50 = load ptr, ptr %5, align 8
  %51 = getelementptr inbounds nuw %struct.PMChild, ptr %50, i32 0, i32 0
  %52 = load i32, ptr %51, align 8
  %53 = load i32, ptr %3, align 4
  %54 = icmp eq i32 %52, %53
  br i1 %54, label %55, label %58

55:                                               ; preds = %46
  %56 = load ptr, ptr %5, align 8
  %57 = getelementptr inbounds nuw %struct.PMChild, ptr %56, i32 0, i32 4
  store i8 1, ptr %57, align 8
  store i1 true, ptr %2, align 1
  store i32 1, ptr %10, align 4
  br label %66

58:                                               ; preds = %46
  br label %59

59:                                               ; preds = %58
  %60 = getelementptr inbounds nuw %struct.dlist_iter, ptr %4, i32 0, i32 0
  %61 = load ptr, ptr %60, align 8
  %62 = getelementptr inbounds nuw %struct.dlist_node, ptr %61, i32 0, i32 1
  %63 = load ptr, ptr %62, align 8
  %64 = getelementptr inbounds nuw %struct.dlist_iter, ptr %4, i32 0, i32 0
  store ptr %63, ptr %64, align 8
  br label %34, !llvm.loop !16

65:                                               ; preds = %34
  store i1 false, ptr %2, align 1
  store i32 1, ptr %10, align 4
  br label %66

66:                                               ; preds = %65, %55
  call void @llvm.lifetime.end.p0(i64 8, ptr %5) #15
  call void @llvm.lifetime.end.p0(i64 16, ptr %4) #15
  %67 = load i1, ptr %2, align 1
  ret i1 %67
}