; Function Attrs: nofree norecurse nosync nounwind memory(readwrite, inaccessiblemem: none) uwtable
define dso_local noundef zeroext i1 @PostmasterMarkPIDForWorkerNotify(i32 noundef %0) local_unnamed_addr #11 {
  %2 = load ptr, ptr getelementptr inbounds nuw (i8, ptr @ActiveChildList, i64 8), align 8
  %.not = icmp eq ptr %2, null
  %.not913.not17 = icmp eq ptr %2, @ActiveChildList
  %.not913.not = or i1 %.not, %.not913.not17
  br i1 %.not913.not, label %.loopexit, label %.lr.ph

.lr.ph:                                           ; preds = %1, %select.unfold
  %.sroa.0.014 = phi ptr [ %9, %select.unfold ], [ %2, %1 ]
  %3 = getelementptr inbounds i8, ptr %.sroa.0.014, i64 -32
  %4 = load i32, ptr %3, align 8
  %5 = icmp eq i32 %4, %0
  br i1 %5, label %6, label %select.unfold

6:                                                ; preds = %.lr.ph
  %7 = getelementptr inbounds i8, ptr %.sroa.0.014, i64 -8
  store i8 1, ptr %7, align 8
  br label %.loopexit

select.unfold:                                    ; preds = %.lr.ph
  %8 = getelementptr inbounds nuw i8, ptr %.sroa.0.014, i64 8
  %9 = load ptr, ptr %8, align 8
  %.not9.not = icmp eq ptr %9, @ActiveChildList
  br i1 %.not9.not, label %.loopexit, label %.lr.ph, !llvm.loop !20

.loopexit:                                        ; preds = %select.unfold, %1, %6
  %.not911 = phi i1 [ true, %6 ], [ false, %1 ], [ false, %select.unfold ]
  ret i1 %.not911
}